target datalayout = "e-m:e-p270:32:32-p271:32:32-p272:64:64-i64:64-i128:128-f80:128-n8:16:32:64-S128"
target triple = "x86_64-pc-linux-gnu"

%struct.CORD_Pos = type { i64, i32, ptr, i64, i64, [49 x %struct.CORD_pe], [8 x i8] }
%struct.CORD_pe = type { ptr, i64 }

; Function Attrs: nounwind uwtable
define i32 @CORD_cmp(ptr noundef %0, ptr noundef %1) #0 {
  %3 = alloca i32, align 4
  %4 = alloca ptr, align 8
  %5 = alloca ptr, align 8
  %6 = alloca [1 x %struct.CORD_Pos], align 16
  %7 = alloca [1 x %struct.CORD_Pos], align 16
  %8 = alloca i32, align 4
  %9 = alloca i64, align 8
  %10 = alloca i64, align 8
  %11 = alloca i8, align 1
  %12 = alloca i8, align 1
  %13 = alloca i32, align 4
  store ptr %0, ptr %4, align 8, !tbaa !3
  store ptr %1, ptr %5, align 8, !tbaa !3
  call void @llvm.lifetime.start.p0(i64 832, ptr %6) #9
  call void @llvm.lifetime.start.p0(i64 832, ptr %7) #9
  %14 = load ptr, ptr %5, align 8, !tbaa !3
  %15 = icmp eq ptr %14, null
  br i1 %15, label %16, label %20

16:                                               ; preds = %2
  %17 = load ptr, ptr %4, align 8, !tbaa !3
  %18 = icmp ne ptr %17, null
  %19 = zext i1 %18 to i32
  store i32 %19, ptr %3, align 4
  store i32 1, ptr %8, align 4
  br label %264

20:                                               ; preds = %2
  %21 = load ptr, ptr %4, align 8, !tbaa !3
  %22 = icmp eq ptr %21, null
  br i1 %22, label %23, label %24

23:                                               ; preds = %20
  store i32 -1, ptr %3, align 4
  store i32 1, ptr %8, align 4
  br label %264

24:                                               ; preds = %20
  %25 = load ptr, ptr %5, align 8, !tbaa !3
  %26 = load i8, ptr %25, align 1, !tbaa !8
  %27 = sext i8 %26 to i32
  %28 = icmp ne i32 %27, 0
  br i1 %28, label %29, label %38

29:                                               ; preds = %24
  %30 = load ptr, ptr %4, align 8, !tbaa !3
  %31 = load i8, ptr %30, align 1, !tbaa !8
  %32 = sext i8 %31 to i32
  %33 = icmp ne i32 %32, 0
  br i1 %33, label %34, label %38

34:                                               ; preds = %29
  %35 = load ptr, ptr %4, align 8, !tbaa !3
  %36 = load ptr, ptr %5, align 8, !tbaa !3
  %37 = call i32 @strcmp(ptr noundef %35, ptr noundef %36) #12
  store i32 %37, ptr %3, align 4
  store i32 1, ptr %8, align 4
  br label %264

38:                                               ; preds = %29, %24
  %39 = getelementptr inbounds [1 x %struct.CORD_Pos], ptr %6, i64 0, i64 0
  %40 = load ptr, ptr %4, align 8, !tbaa !3
  call void @CORD_set_pos(ptr noundef %39, ptr noundef %40, i64 noundef 0)
  %41 = getelementptr inbounds [1 x %struct.CORD_Pos], ptr %7, i64 0, i64 0
  %42 = load ptr, ptr %5, align 8, !tbaa !3
  call void @CORD_set_pos(ptr noundef %41, ptr noundef %42, i64 noundef 0)
  br label %43

43:                                               ; preds = %263, %38
  call void @llvm.lifetime.start.p0(i64 8, ptr %9) #9
  call void @llvm.lifetime.start.p0(i64 8, ptr %10) #9
  %44 = getelementptr inbounds [1 x %struct.CORD_Pos], ptr %6, i64 0, i64 0
  %45 = getelementptr inbounds nuw %struct.CORD_Pos, ptr %44, i32 0, i32 1
  %46 = load i32, ptr %45, align 8, !tbaa !17
  %47 = icmp ne i32 %46, 1431655765
  br i1 %47, label %54, label %48

48:                                               ; preds = %43
  %49 = getelementptr inbounds [1 x %struct.CORD_Pos], ptr %7, i64 0, i64 0
  %50 = getelementptr inbounds nuw %struct.CORD_Pos, ptr %49, i32 0, i32 1
  %51 = load i32, ptr %50, align 8, !tbaa !17
  %52 = icmp ne i32 %51, 1431655765
  %53 = select i1 %52, i32 -1, i32 0
  store i32 %53, ptr %3, align 4
  store i32 1, ptr %8, align 4
  br label %261

54:                                               ; preds = %43
  %55 = getelementptr inbounds [1 x %struct.CORD_Pos], ptr %7, i64 0, i64 0
  %56 = getelementptr inbounds nuw %struct.CORD_Pos, ptr %55, i32 0, i32 1
  %57 = load i32, ptr %56, align 8, !tbaa !17
  %58 = icmp ne i32 %57, 1431655765
  br i1 %58, label %60, label %59

59:                                               ; preds = %54
  store i32 1, ptr %3, align 4
  store i32 1, ptr %8, align 4
  br label %261

60:                                               ; preds = %54
  %61 = getelementptr inbounds [1 x %struct.CORD_Pos], ptr %6, i64 0, i64 0
  %62 = getelementptr inbounds nuw %struct.CORD_Pos, ptr %61, i32 0, i32 4
  %63 = load i64, ptr %62, align 16, !tbaa !19
  %64 = getelementptr inbounds [1 x %struct.CORD_Pos], ptr %6, i64 0, i64 0
  %65 = getelementptr inbounds nuw %struct.CORD_Pos, ptr %64, i32 0, i32 0
  %66 = load i64, ptr %65, align 16, !tbaa !20
  %67 = sub nsw i64 %63, %66
  store i64 %67, ptr %9, align 8, !tbaa !11
  %68 = load i64, ptr %9, align 8, !tbaa !11
  %69 = icmp eq i64 0, %68
  br i1 %69, label %79, label %70

70:                                               ; preds = %60
  %71 = getelementptr inbounds [1 x %struct.CORD_Pos], ptr %7, i64 0, i64 0
  %72 = getelementptr inbounds nuw %struct.CORD_Pos, ptr %71, i32 0, i32 4
  %73 = load i64, ptr %72, align 16, !tbaa !19
  %74 = getelementptr inbounds [1 x %struct.CORD_Pos], ptr %7, i64 0, i64 0
  %75 = getelementptr inbounds nuw %struct.CORD_Pos, ptr %74, i32 0, i32 0
  %76 = load i64, ptr %75, align 16, !tbaa !20
  %77 = sub nsw i64 %73, %76
  store i64 %77, ptr %10, align 8, !tbaa !11
  %78 = icmp eq i64 %77, 0
  br i1 %78, label %79, label %177

79:                                               ; preds = %70, %60
  call void @llvm.lifetime.start.p0(i64 1, ptr %11) #9
  %80 = getelementptr inbounds [1 x %struct.CORD_Pos], ptr %6, i64 0, i64 0
  %81 = getelementptr inbounds nuw %struct.CORD_Pos, ptr %80, i32 0, i32 4
  %82 = load i64, ptr %81, align 16, !tbaa !19
  %83 = icmp ne i64 %82, 0
  br i1 %83, label %84, label %98

84:                                               ; preds = %79
  %85 = getelementptr inbounds [1 x %struct.CORD_Pos], ptr %6, i64 0, i64 0
  %86 = getelementptr inbounds nuw %struct.CORD_Pos, ptr %85, i32 0, i32 2
  %87 = load ptr, ptr %86, align 16, !tbaa !21
  %88 = getelementptr inbounds [1 x %struct.CORD_Pos], ptr %6, i64 0, i64 0
  %89 = getelementptr inbounds nuw %struct.CORD_Pos, ptr %88, i32 0, i32 0
  %90 = load i64, ptr %89, align 16, !tbaa !20
  %91 = getelementptr inbounds [1 x %struct.CORD_Pos], ptr %6, i64 0, i64 0
  %92 = getelementptr inbounds nuw %struct.CORD_Pos, ptr %91, i32 0, i32 3
  %93 = load i64, ptr %92, align 8, !tbaa !22
  %94 = sub i64 %90, %93
  %95 = getelementptr inbounds nuw i8, ptr %87, i64 %94
  %96 = load i8, ptr %95, align 1, !tbaa !8
  %97 = sext i8 %96 to i32
  br label %102

98:                                               ; preds = %79
  %99 = getelementptr inbounds [1 x %struct.CORD_Pos], ptr %6, i64 0, i64 0
  %100 = call signext i8 @CORD__pos_fetch(ptr noundef %99)
  %101 = sext i8 %100 to i32
  br label %102

102:                                              ; preds = %98, %84
  %103 = phi i32 [ %97, %84 ], [ %101, %98 ]
  %104 = trunc i32 %103 to i8
  store i8 %104, ptr %11, align 1, !tbaa !8
  call void @llvm.lifetime.start.p0(i64 1, ptr %12) #9
  %105 = getelementptr inbounds [1 x %struct.CORD_Pos], ptr %7, i64 0, i64 0
  %106 = getelementptr inbounds nuw %struct.CORD_Pos, ptr %105, i32 0, i32 4
  %107 = load i64, ptr %106, align 16, !tbaa !19
  %108 = icmp ne i64 %107, 0
  br i1 %108, label %109, label %123

109:                                              ; preds = %102
  %110 = getelementptr inbounds [1 x %struct.CORD_Pos], ptr %7, i64 0, i64 0
  %111 = getelementptr inbounds nuw %struct.CORD_Pos, ptr %110, i32 0, i32 2
  %112 = load ptr, ptr %111, align 16, !tbaa !21
  %113 = getelementptr inbounds [1 x %struct.CORD_Pos], ptr %7, i64 0, i64 0
  %114 = getelementptr inbounds nuw %struct.CORD_Pos, ptr %113, i32 0, i32 0
  %115 = load i64, ptr %114, align 16, !tbaa !20
  %116 = getelementptr inbounds [1 x %struct.CORD_Pos], ptr %7, i64 0, i64 0
  %117 = getelementptr inbounds nuw %struct.CORD_Pos, ptr %116, i32 0, i32 3
  %118 = load i64, ptr %117, align 8, !tbaa !22
  %119 = sub i64 %115, %118
  %120 = getelementptr inbounds nuw i8, ptr %112, i64 %119
  %121 = load i8, ptr %120, align 1, !tbaa !8
  %122 = sext i8 %121 to i32
  br label %127

123:                                              ; preds = %102
  %124 = getelementptr inbounds [1 x %struct.CORD_Pos], ptr %7, i64 0, i64 0
  %125 = call signext i8 @CORD__pos_fetch(ptr noundef %124)
  %126 = sext i8 %125 to i32
  br label %127

127:                                              ; preds = %123, %109
  %128 = phi i32 [ %122, %109 ], [ %126, %123 ]
  %129 = trunc i32 %128 to i8
  store i8 %129, ptr %12, align 1, !tbaa !8
  %130 = load i8, ptr %11, align 1, !tbaa !8
  %131 = sext i8 %130 to i32
  %132 = load i8, ptr %12, align 1, !tbaa !8
  %133 = sext i8 %132 to i32
  %134 = icmp ne i32 %131, %133
  br i1 %134, label %135, label %141

135:                                              ; preds = %127
  %136 = load i8, ptr %11, align 1, !tbaa !8
  %137 = sext i8 %136 to i32
  %138 = load i8, ptr %12, align 1, !tbaa !8
  %139 = sext i8 %138 to i32
  %140 = sub nsw i32 %137, %139
  store i32 %140, ptr %3, align 4
  store i32 1, ptr %8, align 4
  br label %174

141:                                              ; preds = %127
  %142 = getelementptr inbounds [1 x %struct.CORD_Pos], ptr %6, i64 0, i64 0
  %143 = getelementptr inbounds nuw %struct.CORD_Pos, ptr %142, i32 0, i32 0
  %144 = load i64, ptr %143, align 16, !tbaa !20
  %145 = add i64 %144, 1
  %146 = getelementptr inbounds [1 x %struct.CORD_Pos], ptr %6, i64 0, i64 0
  %147 = getelementptr inbounds nuw %struct.CORD_Pos, ptr %146, i32 0, i32 4
  %148 = load i64, ptr %147, align 16, !tbaa !19
  %149 = icmp ult i64 %145, %148
  br i1 %149, label %150, label %155

150:                                              ; preds = %141
  %151 = getelementptr inbounds [1 x %struct.CORD_Pos], ptr %6, i64 0, i64 0
  %152 = getelementptr inbounds nuw %struct.CORD_Pos, ptr %151, i32 0, i32 0
  %153 = load i64, ptr %152, align 16, !tbaa !20
  %154 = add i64 %153, 1
  store i64 %154, ptr %152, align 16, !tbaa !20
  br label %157

155:                                              ; preds = %141
  %156 = getelementptr inbounds [1 x %struct.CORD_Pos], ptr %6, i64 0, i64 0
  call void @CORD__next(ptr noundef %156)
  br label %157

157:                                              ; preds = %155, %150
  %158 = getelementptr inbounds [1 x %struct.CORD_Pos], ptr %7, i64 0, i64 0
  %159 = getelementptr inbounds nuw %struct.CORD_Pos, ptr %158, i32 0, i32 0
  %160 = load i64, ptr %159, align 16, !tbaa !20
  %161 = add i64 %160, 1
  %162 = getelementptr inbounds [1 x %struct.CORD_Pos], ptr %7, i64 0, i64 0
  %163 = getelementptr inbounds nuw %struct.CORD_Pos, ptr %162, i32 0, i32 4
  %164 = load i64, ptr %163, align 16, !tbaa !19
  %165 = icmp ult i64 %161, %164
  br i1 %165, label %166, label %171

166:                                              ; preds = %157
  %167 = getelementptr inbounds [1 x %struct.CORD_Pos], ptr %7, i64 0, i64 0
  %168 = getelementptr inbounds nuw %struct.CORD_Pos, ptr %167, i32 0, i32 0
  %169 = load i64, ptr %168, align 16, !tbaa !20
  %170 = add i64 %169, 1
  store i64 %170, ptr %168, align 16, !tbaa !20
  br label %173

171:                                              ; preds = %157
  %172 = getelementptr inbounds [1 x %struct.CORD_Pos], ptr %7, i64 0, i64 0
  call void @CORD__next(ptr noundef %172)
  br label %173

173:                                              ; preds = %171, %166
  store i32 0, ptr %8, align 4
  br label %174

174:                                              ; preds = %173, %135
  call void @llvm.lifetime.end.p0(i64 1, ptr %12) #9
  call void @llvm.lifetime.end.p0(i64 1, ptr %11) #9
  %175 = load i32, ptr %8, align 4
  switch i32 %175, label %261 [
    i32 0, label %176
  ]

176:                                              ; preds = %174
  br label %260

177:                                              ; preds = %70
  call void @llvm.lifetime.start.p0(i64 4, ptr %13) #9
  %178 = load i64, ptr %9, align 8, !tbaa !11
  %179 = load i64, ptr %10, align 8, !tbaa !11
  %180 = icmp sgt i64 %178, %179
  br i1 %180, label %181, label %183

181:                                              ; preds = %177
  %182 = load i64, ptr %10, align 8, !tbaa !11
  store i64 %182, ptr %9, align 8, !tbaa !11
  br label %183

183:                                              ; preds = %181, %177
  %184 = getelementptr inbounds [1 x %struct.CORD_Pos], ptr %6, i64 0, i64 0
  %185 = getelementptr inbounds nuw %struct.CORD_Pos, ptr %184, i32 0, i32 2
  %186 = load ptr, ptr %185, align 16, !tbaa !21
  %187 = getelementptr inbounds [1 x %struct.CORD_Pos], ptr %6, i64 0, i64 0
  %188 = getelementptr inbounds nuw %struct.CORD_Pos, ptr %187, i32 0, i32 0
  %189 = load i64, ptr %188, align 16, !tbaa !20
  %190 = getelementptr inbounds [1 x %struct.CORD_Pos], ptr %6, i64 0, i64 0
  %191 = getelementptr inbounds nuw %struct.CORD_Pos, ptr %190, i32 0, i32 3
  %192 = load i64, ptr %191, align 8, !tbaa !22
  %193 = sub i64 %189, %192
  %194 = getelementptr inbounds nuw i8, ptr %186, i64 %193
  %195 = getelementptr inbounds [1 x %struct.CORD_Pos], ptr %7, i64 0, i64 0
  %196 = getelementptr inbounds nuw %struct.CORD_Pos, ptr %195, i32 0, i32 2
  %197 = load ptr, ptr %196, align 16, !tbaa !21
  %198 = getelementptr inbounds [1 x %struct.CORD_Pos], ptr %7, i64 0, i64 0
  %199 = getelementptr inbounds nuw %struct.CORD_Pos, ptr %198, i32 0, i32 0
  %200 = load i64, ptr %199, align 16, !tbaa !20
  %201 = getelementptr inbounds [1 x %struct.CORD_Pos], ptr %7, i64 0, i64 0
  %202 = getelementptr inbounds nuw %struct.CORD_Pos, ptr %201, i32 0, i32 3
  %203 = load i64, ptr %202, align 8, !tbaa !22
  %204 = sub i64 %200, %203
  %205 = getelementptr inbounds nuw i8, ptr %197, i64 %204
  %206 = load i64, ptr %9, align 8, !tbaa !11
  %207 = call i32 @strncmp(ptr noundef %194, ptr noundef %205, i64 noundef %206) #12
  store i32 %207, ptr %13, align 4, !tbaa !13
  %208 = load i32, ptr %13, align 4, !tbaa !13
  %209 = icmp ne i32 %208, 0
  br i1 %209, label %210, label %212

210:                                              ; preds = %183
  %211 = load i32, ptr %13, align 4, !tbaa !13
  store i32 %211, ptr %3, align 4
  store i32 1, ptr %8, align 4
  br label %257

212:                                              ; preds = %183
  %213 = load i64, ptr %9, align 8, !tbaa !11
  %214 = sub i64 %213, 1
  %215 = getelementptr inbounds [1 x %struct.CORD_Pos], ptr %6, i64 0, i64 0
  %216 = getelementptr inbounds nuw %struct.CORD_Pos, ptr %215, i32 0, i32 0
  %217 = load i64, ptr %216, align 16, !tbaa !20
  %218 = add i64 %217, %214
  store i64 %218, ptr %216, align 16, !tbaa !20
  %219 = getelementptr inbounds [1 x %struct.CORD_Pos], ptr %6, i64 0, i64 0
  %220 = getelementptr inbounds nuw %struct.CORD_Pos, ptr %219, i32 0, i32 0
  %221 = load i64, ptr %220, align 16, !tbaa !20
  %222 = add i64 %221, 1
  %223 = getelementptr inbounds [1 x %struct.CORD_Pos], ptr %6, i64 0, i64 0
  %224 = getelementptr inbounds nuw %struct.CORD_Pos, ptr %223, i32 0, i32 4
  %225 = load i64, ptr %224, align 16, !tbaa !19
  %226 = icmp ult i64 %222, %225
  br i1 %226, label %227, label %232

227:                                              ; preds = %212
  %228 = getelementptr inbounds [1 x %struct.CORD_Pos], ptr %6, i64 0, i64 0
  %229 = getelementptr inbounds nuw %struct.CORD_Pos, ptr %228, i32 0, i32 0
  %230 = load i64, ptr %229, align 16, !tbaa !20
  %231 = add i64 %230, 1
  store i64 %231, ptr %229, align 16, !tbaa !20
  br label %234

232:                                              ; preds = %212
  %233 = getelementptr inbounds [1 x %struct.CORD_Pos], ptr %6, i64 0, i64 0
  call void @CORD__next(ptr noundef %233)
  br label %234

234:                                              ; preds = %232, %227
  %235 = load i64, ptr %9, align 8, !tbaa !11
  %236 = sub i64 %235, 1
  %237 = getelementptr inbounds [1 x %struct.CORD_Pos], ptr %7, i64 0, i64 0
  %238 = getelementptr inbounds nuw %struct.CORD_Pos, ptr %237, i32 0, i32 0
  %239 = load i64, ptr %238, align 16, !tbaa !20
  %240 = add i64 %239, %236
  store i64 %240, ptr %238, align 16, !tbaa !20
  %241 = getelementptr inbounds [1 x %struct.CORD_Pos], ptr %7, i64 0, i64 0
  %242 = getelementptr inbounds nuw %struct.CORD_Pos, ptr %241, i32 0, i32 0
  %243 = load i64, ptr %242, align 16, !tbaa !20
  %244 = add i64 %243, 1
  %245 = getelementptr inbounds [1 x %struct.CORD_Pos], ptr %7, i64 0, i64 0
  %246 = getelementptr inbounds nuw %struct.CORD_Pos, ptr %245, i32 0, i32 4
  %247 = load i64, ptr %246, align 16, !tbaa !19
  %248 = icmp ult i64 %244, %247
  br i1 %248, label %249, label %254

249:                                              ; preds = %234
  %250 = getelementptr inbounds [1 x %struct.CORD_Pos], ptr %7, i64 0, i64 0
  %251 = getelementptr inbounds nuw %struct.CORD_Pos, ptr %250, i32 0, i32 0
  %252 = load i64, ptr %251, align 16, !tbaa !20
  %253 = add i64 %252, 1
  store i64 %253, ptr %251, align 16, !tbaa !20
  br label %256

254:                                              ; preds = %234
  %255 = getelementptr inbounds [1 x %struct.CORD_Pos], ptr %7, i64 0, i64 0
  call void @CORD__next(ptr noundef %255)
  br label %256

256:                                              ; preds = %254, %249
  store i32 0, ptr %8, align 4
  br label %257

257:                                              ; preds = %256, %210
  call void @llvm.lifetime.end.p0(i64 4, ptr %13) #9
  %258 = load i32, ptr %8, align 4
  switch i32 %258, label %261 [
    i32 0, label %259
  ]

259:                                              ; preds = %257
  br label %260

260:                                              ; preds = %259, %176
  store i32 0, ptr %8, align 4
  br label %261

261:                                              ; preds = %260, %257, %174, %59, %48
  call void @llvm.lifetime.end.p0(i64 8, ptr %10) #9
  call void @llvm.lifetime.end.p0(i64 8, ptr %9) #9
  %262 = load i32, ptr %8, align 4
  switch i32 %262, label %264 [
    i32 0, label %263
  ]

263:                                              ; preds = %261
  br label %43

264:                                              ; preds = %261, %34, %23, %16
  call void @llvm.lifetime.end.p0(i64 832, ptr %7) #9
  call void @llvm.lifetime.end.p0(i64 832, ptr %6) #9
  %265 = load i32, ptr %3, align 4
  ret i32 %265
}