; Function Attrs: nounwind uwtable
define i32 @CORD_cmp(ptr noundef %0, ptr noundef %1) local_unnamed_addr #0 {
  %3 = alloca [1 x %struct.CORD_Pos], align 16
  %4 = alloca [1 x %struct.CORD_Pos], align 16
  call void @llvm.lifetime.start.p0(i64 832, ptr nonnull %3) #16
  call void @llvm.lifetime.start.p0(i64 832, ptr nonnull %4) #16
  %5 = icmp eq ptr %1, null
  br i1 %5, label %6, label %9

6:                                                ; preds = %2
  %7 = icmp ne ptr %0, null
  %8 = zext i1 %7 to i32
  br label %.thread56

9:                                                ; preds = %2
  %10 = icmp eq ptr %0, null
  br i1 %10, label %.thread56, label %11

11:                                               ; preds = %9
  %12 = load i8, ptr %1, align 1, !tbaa !8
  %.not = icmp eq i8 %12, 0
  br i1 %.not, label %17, label %13

13:                                               ; preds = %11
  %14 = load i8, ptr %0, align 1, !tbaa !8
  %.not42 = icmp eq i8 %14, 0
  br i1 %.not42, label %17, label %15

15:                                               ; preds = %13
  %16 = tail call i32 @strcmp(ptr noundef nonnull dereferenceable(1) %0, ptr noundef nonnull dereferenceable(1) %1) #20
  br label %.thread56

17:                                               ; preds = %13, %11
  call void @CORD_set_pos(ptr noundef nonnull %3, ptr noundef nonnull %0, i64 noundef 0) #16
  call void @CORD_set_pos(ptr noundef nonnull %4, ptr noundef nonnull %1, i64 noundef 0) #16
  %18 = getelementptr inbounds nuw i8, ptr %3, i64 8
  %19 = load i32, ptr %18, align 8, !tbaa !13
  %.not4359 = icmp eq i32 %19, 1431655765
  br i1 %.not4359, label %._crit_edge, label %.lr.ph

.lr.ph:                                           ; preds = %17
  %20 = getelementptr inbounds nuw i8, ptr %4, i64 8
  %21 = getelementptr inbounds nuw i8, ptr %3, i64 32
  %22 = getelementptr inbounds nuw i8, ptr %4, i64 32
  %23 = getelementptr inbounds nuw i8, ptr %3, i64 16
  %24 = getelementptr inbounds nuw i8, ptr %3, i64 24
  %25 = getelementptr inbounds nuw i8, ptr %4, i64 16
  %26 = getelementptr inbounds nuw i8, ptr %4, i64 24
  br label %30

._crit_edge:                                      ; preds = %.thread, %17
  %27 = getelementptr inbounds nuw i8, ptr %4, i64 8
  %28 = load i32, ptr %27, align 8, !tbaa !13
  %.not44 = icmp ne i32 %28, 1431655765
  %29 = sext i1 %.not44 to i32
  br label %.thread56

30:                                               ; preds = %.lr.ph, %.thread
  %31 = load i32, ptr %20, align 8, !tbaa !13
  %.not45 = icmp eq i32 %31, 1431655765
  br i1 %.not45, label %.thread56, label %32

32:                                               ; preds = %30
  %33 = load i64, ptr %21, align 16, !tbaa !17
  %34 = load i64, ptr %3, align 16, !tbaa !18
  %35 = sub nsw i64 %33, %34
  %36 = icmp eq i64 %33, %34
  br i1 %36, label %41, label %37

37:                                               ; preds = %32
  %38 = load i64, ptr %22, align 16, !tbaa !17
  %39 = load i64, ptr %4, align 16, !tbaa !18
  %40 = icmp eq i64 %38, %39
  br i1 %40, label %41, label %80

41:                                               ; preds = %37, %32
  %.not47 = icmp eq i64 %33, 0
  br i1 %.not47, label %48, label %42

42:                                               ; preds = %41
  %43 = load ptr, ptr %23, align 16, !tbaa !19
  %44 = load i64, ptr %24, align 8, !tbaa !20
  %45 = sub i64 %34, %44
  %46 = getelementptr inbounds nuw i8, ptr %43, i64 %45
  %47 = load i8, ptr %46, align 1, !tbaa !8
  br label %50

48:                                               ; preds = %41
  %49 = call signext i8 @CORD__pos_fetch(ptr noundef nonnull %3) #16
  br label %50

50:                                               ; preds = %48, %42
  %.in = phi i8 [ %47, %42 ], [ %49, %48 ]
  %51 = load i64, ptr %22, align 16, !tbaa !17
  %.not48 = icmp eq i64 %51, 0
  br i1 %.not48, label %59, label %52

52:                                               ; preds = %50
  %53 = load ptr, ptr %25, align 16, !tbaa !19
  %54 = load i64, ptr %4, align 16, !tbaa !18
  %55 = load i64, ptr %26, align 8, !tbaa !20
  %56 = sub i64 %54, %55
  %57 = getelementptr inbounds nuw i8, ptr %53, i64 %56
  %58 = load i8, ptr %57, align 1, !tbaa !8
  br label %61

59:                                               ; preds = %50
  %60 = call signext i8 @CORD__pos_fetch(ptr noundef nonnull %4) #16
  br label %61

61:                                               ; preds = %59, %52
  %.in49 = phi i8 [ %58, %52 ], [ %60, %59 ]
  %.not50 = icmp eq i8 %.in, %.in49
  br i1 %.not50, label %62, label %76

62:                                               ; preds = %61
  %63 = load i64, ptr %3, align 16, !tbaa !18
  %64 = add i64 %63, 1
  %65 = load i64, ptr %21, align 16, !tbaa !17
  %66 = icmp ult i64 %64, %65
  br i1 %66, label %67, label %68

67:                                               ; preds = %62
  store i64 %64, ptr %3, align 16, !tbaa !18
  br label %69

68:                                               ; preds = %62
  call void @CORD__next(ptr noundef nonnull %3) #16
  br label %69

69:                                               ; preds = %68, %67
  %70 = load i64, ptr %4, align 16, !tbaa !18
  %71 = add i64 %70, 1
  %72 = load i64, ptr %22, align 16, !tbaa !17
  %73 = icmp ult i64 %71, %72
  br i1 %73, label %74, label %75

74:                                               ; preds = %69
  store i64 %71, ptr %4, align 16, !tbaa !18
  br label %.thread

75:                                               ; preds = %69
  call void @CORD__next(ptr noundef nonnull %4) #16
  br label %.thread

76:                                               ; preds = %61
  %77 = sext i8 %.in49 to i32
  %78 = sext i8 %.in to i32
  %79 = sub nsw i32 %78, %77
  br label %.thread56

80:                                               ; preds = %37
  %81 = sub nsw i64 %38, %39
  %spec.select = call i64 @llvm.smin.i64(i64 %35, i64 %81)
  %82 = load ptr, ptr %23, align 16, !tbaa !19
  %83 = load i64, ptr %24, align 8, !tbaa !20
  %84 = sub i64 %34, %83
  %85 = getelementptr inbounds nuw i8, ptr %82, i64 %84
  %86 = load ptr, ptr %25, align 16, !tbaa !19
  %87 = load i64, ptr %26, align 8, !tbaa !20
  %88 = sub i64 %39, %87
  %89 = getelementptr inbounds nuw i8, ptr %86, i64 %88
  %90 = call i32 @strncmp(ptr noundef %85, ptr noundef %89, i64 noundef %spec.select) #20
  %.not46 = icmp eq i32 %90, 0
  br i1 %.not46, label %91, label %.thread56

91:                                               ; preds = %80
  %92 = add i64 %spec.select, -1
  %93 = add i64 %92, %34
  store i64 %93, ptr %3, align 16, !tbaa !18
  %94 = add i64 %spec.select, %34
  %95 = icmp ult i64 %94, %33
  br i1 %95, label %96, label %97

96:                                               ; preds = %91
  store i64 %94, ptr %3, align 16, !tbaa !18
  br label %98

97:                                               ; preds = %91
  call void @CORD__next(ptr noundef nonnull %3) #16
  %.pre = load i64, ptr %4, align 16, !tbaa !18
  %.pre60 = load i64, ptr %22, align 16, !tbaa !17
  br label %98

98:                                               ; preds = %97, %96
  %99 = phi i64 [ %.pre60, %97 ], [ %38, %96 ]
  %100 = phi i64 [ %.pre, %97 ], [ %39, %96 ]
  %101 = add i64 %100, %92
  store i64 %101, ptr %4, align 16, !tbaa !18
  %102 = add i64 %100, %spec.select
  %103 = icmp ult i64 %102, %99
  br i1 %103, label %104, label %105

104:                                              ; preds = %98
  store i64 %102, ptr %4, align 16, !tbaa !18
  br label %.thread

105:                                              ; preds = %98
  call void @CORD__next(ptr noundef nonnull %4) #16
  br label %.thread

.thread:                                          ; preds = %105, %104, %75, %74
  %106 = load i32, ptr %18, align 8, !tbaa !13
  %.not43 = icmp eq i32 %106, 1431655765
  br i1 %.not43, label %._crit_edge, label %30

.thread56:                                        ; preds = %80, %30, %._crit_edge, %76, %9, %15, %6
  %.0 = phi i32 [ %8, %6 ], [ %16, %15 ], [ -1, %9 ], [ %29, %._crit_edge ], [ %79, %76 ], [ 1, %30 ], [ %90, %80 ]
  call void @llvm.lifetime.end.p0(i64 832, ptr nonnull %4) #16
  call void @llvm.lifetime.end.p0(i64 832, ptr nonnull %3) #16
  ret i32 %.0
}